(dp1
S'params'
p2
(dp3
S'simulation_epoch_size'
p4
I100
sS'slot_err_mode'
p5
I0
sS'diaact_nl_pairs'
p6
S'./deep_dialog/data/dia_act_nl_pairs.v6.json'
p7
sS'save_check_point'
p8
I10
sS'episodes'
p9
I500
sS'predict_mode'
p10
I00
sS'cmd_input_mode'
p11
I0
sS'goal_file_path'
p12
S'./deep_dialog/data/user_goals_first_turn_template.part.movie.v1.p'
p13
sS'max_turn'
p14
I40
sS'experience_replay_pool_size'
p15
I1000
sS'write_model_dir'
p16
S'./deep_dialog/checkpoints/boltzmann_agent/'
p17
sS'usr'
p18
I1
sS'auto_suggest'
p19
I0
sS'run_mode'
p20
I3
sS'trained_model_path'
p21
NsS'success_rate_threshold'
p22
F0.29999999999999999
sS'nlu_model_path'
p23
S'./deep_dialog/models/nlu/lstm_[1468447442.91]_39_80_0.921.p'
p24
sS'epsilon'
p25
I0
sS'batch_size'
p26
I16
sS'learning_phase'
p27
S'all'
p28
sS'nlg_model_path'
p29
S'./deep_dialog/models/nlg/lstm_tanh_relu_[1468202263.38]_2_0.610.p'
p30
sS'act_set'
p31
S'./deep_dialog/data/dia_acts.txt'
p32
sS'movie_kb_path'
p33
S'./deep_dialog/data/movie_kb.1k.p'
p34
sS'slot_err_prob'
p35
F0
sS'warm_start'
p36
I1
sS'warm_start_epochs'
p37
I120
sS'dict_path'
p38
S'./deep_dialog/data/dicts.v3.p'
p39
sS'intent_err_prob'
p40
F0
sS'slot_set'
p41
S'./deep_dialog/data/slot_set.txt'
p42
sS'act_level'
p43
I0
sS'dqn_hidden_size'
p44
I80
sS'agt'
p45
I11
sS'split_fold'
p46
I5
sS'gamma'
p47
F0.90000000000000002
ss.