(dp1
S'params'
p2
(dp3
S'simulation_epoch_size'
p4
I100
sS'slot_err_mode'
p5
I0
sS'diaact_nl_pairs'
p6
S'./deep_dialog/data/dia_act_nl_pairs.v6.json'
p7
sS'discriminator_lr'
p8
F0.00050000000000000001
sS'save_check_point'
p9
I20
sS'episodes'
p10
I500
sS'predict_mode'
p11
I00
sS'cmd_input_mode'
p12
I0
sS'goal_file_path'
p13
S'./deep_dialog/data/user_goals_first_turn_template.part.movie.v1.p'
p14
sS'max_turn'
p15
I40
sS'final_checkpoint_path'
p16
NsS'experience_replay_pool_size'
p17
I1000
sS'is_a2c'
p18
I00
sS'write_model_dir'
p19
S'./deep_dialog/checkpoints/dqn_keras_2/'
p20
sS'critic_lr'
p21
F0.001
sS'usr'
p22
I1
sS'auto_suggest'
p23
I0
sS'run_mode'
p24
I10
sS'trained_model_path'
p25
NsS'test_mode'
p26
I00
sS'success_rate_threshold'
p27
F0.29999999999999999
sS'nlu_model_path'
p28
S'./deep_dialog/models/nlu/lstm_[1468447442.91]_39_80_0.921.p'
p29
sS'epsilon'
p30
I0
sS'target_sample_type'
p31
S'map'
p32
sS'batch_size'
p33
I32
sS'learning_phase'
p34
S'all'
p35
sS'nlg_model_path'
p36
S'./deep_dialog/models/nlg/lstm_tanh_relu_[1468202263.38]_2_0.610.p'
p37
sS'act_set'
p38
S'./deep_dialog/data/dia_acts.txt'
p39
sS'movie_kb_path'
p40
S'./deep_dialog/data/movie_kb.1k.p'
p41
sS'lrate'
p42
F0.0050000000000000001
sS'actor_lr'
p43
F0.00050000000000000001
sS'gan_critic_lr'
p44
F0.001
sS'slot_err_prob'
p45
F0
sS'warm_start'
p46
I1
sS'warm_start_epochs'
p47
I120
sS'dict_path'
p48
S'./deep_dialog/data/dicts.v3.p'
p49
sS'intent_err_prob'
p50
F0
sS'slot_set'
p51
S'./deep_dialog/data/slot_set.txt'
p52
sS'n'
I50
sS'act_level'
p53
I0
sS'dqn_hidden_size'
p54
I80
sS'agt'
p55
I10
sS'split_fold'
p56
I5
sS'gamma'
p57
F0.90000000000000002
ss.